; Function Attrs: mustprogress nounwind uwtable
define hidden noundef zeroext i1 @_ZN13ObjectSampler6createEm(i64 noundef %0) local_unnamed_addr #0 align 2 {
  tail call void asm sideeffect "", "~{memory},~{dirflag},~{fpsr},~{flags}"() #11, !srcloc !6
  store volatile i8 0, ptr @_ZL17_unresolved_entry, align 1
  tail call void @_ZN22ObjectSampleCheckpoint5clearEv() #11
  %2 = tail call noundef ptr @_Z12AllocateHeapm8MEMFLAGSN17AllocFailStrategy13AllocFailEnumE(i64 noundef 40, i8 noundef zeroext 16, i32 noundef 0) #11
  %3 = tail call noundef ptr @_Z12AllocateHeapm8MEMFLAGSN17AllocFailStrategy13AllocFailEnumE(i64 noundef 32, i8 noundef zeroext 16, i32 noundef 0) #11
  tail call void @_ZN19SamplePriorityQueueC1Em(ptr noundef nonnull align 8 dereferenceable(32) %3, i64 noundef %0) #11
  store ptr %3, ptr %2, align 8
  %4 = tail call noundef ptr @_ZN11JfrCHeapObjnwEm(i64 noundef 80) #11
  %5 = icmp eq ptr %4, null
  br i1 %5, label %_ZN13ObjectSamplerC2Em.exit, label %6

6:                                                ; preds = %1
  tail call void @_ZN10SampleListC1Emm(ptr noundef nonnull align 8 dereferenceable(80) %4, i64 noundef %0, i64 noundef 0) #11
  br label %_ZN13ObjectSamplerC2Em.exit

_ZN13ObjectSamplerC2Em.exit:                      ; preds = %1, %6
  %7 = getelementptr inbounds i8, ptr %2, i64 8
  store ptr %4, ptr %7, align 8
  %8 = getelementptr inbounds i8, ptr %2, i64 16
  %9 = getelementptr inbounds i8, ptr %2, i64 32
  tail call void @llvm.memset.p0.i64(ptr noundef nonnull align 8 dereferenceable(16) %8, i8 0, i64 16, i1 false)
  store i64 %0, ptr %9, align 8
  store volatile i8 0, ptr @_ZL13_dead_samples, align 1
  %10 = tail call noundef i64 @_ZN33FastUnorderedElapsedCounterSource3nowEv() #11
  store volatile i64 %10, ptr @_ZL11_last_sweep, align 8
  store ptr %2, ptr @_ZL9_instance, align 8
  ret i1 true
}